target datalayout = "e-m:e-p270:32:32-p271:32:32-p272:64:64-i64:64-i128:128-f80:128-n8:16:32:64-S128"
target triple = "x86_64-pc-linux-gnu"

%struct.xcgroup_t = type { ptr, ptr, ptr, i32, i32, i32 }
%struct.slurm_conf_t = type { i64, ptr, i16, ptr, ptr, ptr, ptr, ptr, i16, ptr, ptr, ptr, ptr, ptr, ptr, ptr, i16, ptr, ptr, ptr, ptr, i16, ptr, ptr, ptr, i64, ptr, ptr, ptr, ptr, i16, ptr, ptr, i16, i32, ptr, i32, ptr, i32, i32, ptr, ptr, i64, i64, ptr, i16, i16, ptr, i32, i32, ptr, i32, ptr, i32, i16, i16, i16, ptr, i16, i16, ptr, ptr, i32, i16, i16, ptr, i32, i16, ptr, ptr, ptr, ptr, i16, ptr, ptr, ptr, ptr, i32, ptr, ptr, ptr, ptr, i16, i16, ptr, i32, i32, i32, i16, i16, ptr, ptr, i16, ptr, ptr, i32, i32, i32, i32, i32, i64, i32, i32, i16, ptr, ptr, i32, ptr, ptr, ptr, i16, i32, ptr, ptr, i16, ptr, ptr, i32, i16, ptr, ptr, ptr, ptr, i32, i32, i16, i16, i32, ptr, i16, ptr, i32, i32, i32, i32, i32, i32, ptr, i16, ptr, ptr, i32, i16, ptr, i32, i16, i16, ptr, ptr, ptr, i16, ptr, ptr, ptr, ptr, i16, i16, ptr, i16, ptr, i16, ptr, i16, ptr, i16, ptr, ptr, ptr, ptr, i16, ptr, ptr, ptr, i32, ptr, i32, ptr, ptr, i16, ptr, ptr, i32, i16, ptr, ptr, i16, i16, ptr, i16, ptr, ptr, ptr, i32, ptr, i16, i16, ptr, ptr, ptr, ptr, ptr, ptr, ptr, ptr, i16, i32, i16, ptr, ptr, ptr, ptr, i32, ptr, ptr, ptr, i16, ptr, ptr, ptr, i16, ptr, i16, ptr, i16, i16, ptr }
%struct.bpf_program = type { i64, i64, ptr }
%struct.task_cg_info_t = type { %struct.xcgroup_t, i32, %struct.bpf_program }

@plugin_type = dso_local constant [10 x i8] c"cgroup/v2\00", align 1
@task_list = internal global ptr null, align 8
@int_cg = internal global [9 x %struct.xcgroup_t] zeroinitializer, align 16
@slurm_conf = external global %struct.slurm_conf_t, align 8
@p = internal global [9 x %struct.bpf_program] zeroinitializer, align 16
@.str.43 = private unnamed_addr constant [51 x i8] c"No task found with id %u, this should never happen\00", align 1
@.str.48 = private unnamed_addr constant [35 x i8] c"cgroup controller %u not supported\00", align 1
@.str.49 = private unnamed_addr constant [44 x i8] c"EBPF program with task_id %u does not exist\00", align 1
@.str.50 = private unnamed_addr constant [61 x i8] c"%s: %s: CGROUP: EBPF Closing and loading bpf program into %s\00", align 1
@__func__.cgroup_p_constrain_apply = private unnamed_addr constant [25 x i8] c"cgroup_p_constrain_apply\00", align 1
@.str.51 = private unnamed_addr constant [74 x i8] c"%s: %s: CGROUP: EBPF Not loading the program into %s because it is a noop\00", align 1

; Function Attrs: nounwind uwtable
define dso_local i32 @cgroup_p_constrain_apply(i32 noundef %0, i32 noundef %1, i32 noundef %2) #0 {
  %4 = alloca i32, align 4
  %5 = alloca i32, align 4
  %6 = alloca i32, align 4
  %7 = alloca i32, align 4
  %8 = alloca ptr, align 8
  %9 = alloca ptr, align 8
  %10 = alloca ptr, align 8
  %11 = alloca i32, align 4
  store i32 %0, ptr %5, align 4
  store i32 %1, ptr %6, align 4
  store i32 %2, ptr %7, align 4
  call void @llvm.lifetime.start.p0(i64 8, ptr %8) #10
  store ptr null, ptr %8, align 8
  call void @llvm.lifetime.start.p0(i64 8, ptr %9) #10
  call void @llvm.lifetime.start.p0(i64 8, ptr %10) #10
  store ptr null, ptr %10, align 8
  %12 = load i32, ptr %6, align 4
  %13 = icmp eq i32 %12, 2
  br i1 %13, label %14, label %15

14:                                               ; preds = %3
  store i32 0, ptr %4, align 4
  store i32 1, ptr %11, align 4
  br label %113

15:                                               ; preds = %3
  %16 = load i32, ptr %6, align 4
  %17 = icmp eq i32 %16, 1
  br i1 %17, label %18, label %19

18:                                               ; preds = %15
  store i32 0, ptr %6, align 4
  br label %19

19:                                               ; preds = %18, %15
  %20 = load i32, ptr %6, align 4
  %21 = icmp eq i32 %20, 4
  br i1 %21, label %22, label %23

22:                                               ; preds = %19
  store i32 6, ptr %6, align 4
  br label %23

23:                                               ; preds = %22, %19
  %24 = load i32, ptr %5, align 4
  switch i32 %24, label %109 [
    i32 3, label %25
  ]

25:                                               ; preds = %23
  %26 = load i32, ptr %6, align 4
  %27 = icmp eq i32 %26, 6
  br i1 %27, label %31, label %28

28:                                               ; preds = %25
  %29 = load i32, ptr %6, align 4
  %30 = icmp eq i32 %29, 3
  br i1 %30, label %31, label %40

31:                                               ; preds = %28, %25
  %32 = load i32, ptr %6, align 4
  %33 = zext i32 %32 to i64
  %34 = getelementptr inbounds nuw [9 x %struct.bpf_program], ptr @p, i64 0, i64 %33
  store ptr %34, ptr %8, align 8
  %35 = load i32, ptr %6, align 4
  %36 = zext i32 %35 to i64
  %37 = getelementptr inbounds nuw [9 x %struct.xcgroup_t], ptr @int_cg, i64 0, i64 %36
  %38 = getelementptr inbounds nuw %struct.xcgroup_t, ptr %37, i32 0, i32 2
  %39 = load ptr, ptr %38, align 8
  store ptr %39, ptr %10, align 8
  br label %40

40:                                               ; preds = %31, %28
  %41 = load i32, ptr %6, align 4
  %42 = icmp eq i32 %41, 7
  br i1 %42, label %43, label %57

43:                                               ; preds = %40
  %44 = load ptr, ptr @task_list, align 8
  %45 = call ptr @list_find_first(ptr noundef %44, ptr noundef @_find_task_cg_info, ptr noundef %7)
  store ptr %45, ptr %9, align 8
  %46 = icmp ne ptr %45, null
  br i1 %46, label %50, label %47

47:                                               ; preds = %43
  %48 = load i32, ptr %7, align 4
  %49 = call i32 (ptr, ...) @error(ptr noundef @.str.43, i32 noundef %48)
  store i32 -1, ptr %4, align 4
  store i32 1, ptr %11, align 4
  br label %113

50:                                               ; preds = %43
  %51 = load ptr, ptr %9, align 8
  %52 = getelementptr inbounds nuw %struct.task_cg_info_t, ptr %51, i32 0, i32 2
  store ptr %52, ptr %8, align 8
  %53 = load ptr, ptr %9, align 8
  %54 = getelementptr inbounds nuw %struct.task_cg_info_t, ptr %53, i32 0, i32 0
  %55 = getelementptr inbounds nuw %struct.xcgroup_t, ptr %54, i32 0, i32 2
  %56 = load ptr, ptr %55, align 8
  store ptr %56, ptr %10, align 8
  br label %57

57:                                               ; preds = %50, %40
  %58 = load ptr, ptr %8, align 8
  %59 = icmp ne ptr %58, null
  br i1 %59, label %63, label %60

60:                                               ; preds = %57
  %61 = load i32, ptr %7, align 4
  %62 = call i32 (ptr, ...) @error(ptr noundef @.str.49, i32 noundef %61)
  store i32 -1, ptr %4, align 4
  store i32 1, ptr %11, align 4
  br label %113

63:                                               ; preds = %57
  %64 = load ptr, ptr %8, align 8
  %65 = getelementptr inbounds nuw %struct.bpf_program, ptr %64, i32 0, i32 0
  %66 = load i64, ptr %65, align 8
  %67 = icmp ugt i64 %66, 6
  br i1 %67, label %68, label %91

68:                                               ; preds = %63
  br label %69

69:                                               ; preds = %68
  %70 = load i64, ptr getelementptr inbounds nuw (%struct.slurm_conf_t, ptr @slurm_conf, i32 0, i32 42), align 8
  %71 = and i64 %70, 36028797018963968
  %72 = icmp ne i64 %71, 0
  br i1 %72, label %73, label %82

73:                                               ; preds = %69
  br label %74

74:                                               ; preds = %73
  %75 = call i32 @get_log_level()
  %76 = icmp sge i32 %75, 4
  br i1 %76, label %77, label %79

77:                                               ; preds = %74
  %78 = load ptr, ptr %10, align 8
  call void (i32, ptr, ...) @log_var(i32 noundef 4, ptr noundef @.str.50, ptr noundef @plugin_type, ptr noundef @__func__.cgroup_p_constrain_apply, ptr noundef %78)
  br label %79

79:                                               ; preds = %77, %74
  br label %80

80:                                               ; preds = %79
  br label %81

81:                                               ; preds = %80
  br label %82

82:                                               ; preds = %81, %69
  br label %83

83:                                               ; preds = %82
  br label %84

84:                                               ; preds = %83
  %85 = load ptr, ptr %8, align 8
  call void @close_ebpf_prog(ptr noundef %85, i1 noundef zeroext true)
  %86 = load ptr, ptr %8, align 8
  %87 = load ptr, ptr %10, align 8
  %88 = load i32, ptr %6, align 4
  %89 = icmp ne i32 %88, 7
  %90 = call i32 @load_ebpf_prog(ptr noundef %86, ptr noundef %87, i1 noundef zeroext %89)
  store i32 %90, ptr %4, align 4
  store i32 1, ptr %11, align 4
  br label %113

91:                                               ; preds = %63
  br label %92

92:                                               ; preds = %91
  %93 = load i64, ptr getelementptr inbounds nuw (%struct.slurm_conf_t, ptr @slurm_conf, i32 0, i32 42), align 8
  %94 = and i64 %93, 36028797018963968
  %95 = icmp ne i64 %94, 0
  br i1 %95, label %96, label %105

96:                                               ; preds = %92
  br label %97

97:                                               ; preds = %96
  %98 = call i32 @get_log_level()
  %99 = icmp sge i32 %98, 4
  br i1 %99, label %100, label %102

100:                                              ; preds = %97
  %101 = load ptr, ptr %10, align 8
  call void (i32, ptr, ...) @log_var(i32 noundef 4, ptr noundef @.str.51, ptr noundef @plugin_type, ptr noundef @__func__.cgroup_p_constrain_apply, ptr noundef %101)
  br label %102

102:                                              ; preds = %100, %97
  br label %103

103:                                              ; preds = %102
  br label %104

104:                                              ; preds = %103
  br label %105

105:                                              ; preds = %104, %92
  br label %106

106:                                              ; preds = %105
  br label %107

107:                                              ; preds = %106
  br label %108

108:                                              ; preds = %107
  br label %112

109:                                              ; preds = %23
  %110 = load i32, ptr %5, align 4
  %111 = call i32 (ptr, ...) @error(ptr noundef @.str.48, i32 noundef %110)
  store i32 -1, ptr %4, align 4
  store i32 1, ptr %11, align 4
  br label %113

112:                                              ; preds = %108
  store i32 0, ptr %4, align 4
  store i32 1, ptr %11, align 4
  br label %113

113:                                              ; preds = %112, %109, %84, %60, %47, %14
  call void @llvm.lifetime.end.p0(i64 8, ptr %10) #10
  call void @llvm.lifetime.end.p0(i64 8, ptr %9) #10
  call void @llvm.lifetime.end.p0(i64 8, ptr %8) #10
  %114 = load i32, ptr %4, align 4
  ret i32 %114
}