; Function Attrs: nounwind uwtable
define dso_local i32 @cgroup_p_constrain_apply(i32 noundef %0, i32 noundef %1, i32 noundef %2) local_unnamed_addr #0 {
  %4 = alloca i32, align 4
  store i32 %2, ptr %4, align 4
  %5 = icmp eq i32 %1, 2
  br i1 %5, label %44, label %6

6:                                                ; preds = %3
  %7 = icmp eq i32 %1, 1
  %spec.store.select = select i1 %7, i32 0, i32 %1
  %8 = icmp eq i32 %spec.store.select, 4
  %spec.store.select2 = select i1 %8, i32 6, i32 %spec.store.select
  %cond = icmp eq i32 %0, 3
  br i1 %cond, label %9, label %42

9:                                                ; preds = %6
  switch i32 %spec.store.select2, label %22 [
    i32 6, label %.thread
    i32 3, label %.thread
    i32 7, label %13
  ]

.thread:                                          ; preds = %9, %9
  %10 = zext nneg i32 %spec.store.select2 to i64
  %11 = getelementptr inbounds nuw [9 x %struct.bpf_program], ptr @p, i64 0, i64 %10
  %12 = getelementptr inbounds nuw [9 x %struct.xcgroup_t], ptr @int_cg, i64 0, i64 %10, i32 2
  br label %24

13:                                               ; preds = %9
  %14 = load ptr, ptr @task_list, align 8
  %15 = call ptr @list_find_first(ptr noundef %14, ptr noundef nonnull @_find_task_cg_info, ptr noundef nonnull %4) #17
  %.not = icmp eq ptr %15, null
  br i1 %.not, label %16, label %19

16:                                               ; preds = %13
  %17 = load i32, ptr %4, align 4
  %18 = call i32 (ptr, ...) @error(ptr noundef nonnull @.str.43, i32 noundef %17) #17
  br label %44

19:                                               ; preds = %13
  %20 = getelementptr inbounds nuw i8, ptr %15, i64 48
  %21 = getelementptr inbounds nuw i8, ptr %15, i64 16
  br label %24

22:                                               ; preds = %9
  %23 = tail call i32 (ptr, ...) @error(ptr noundef nonnull @.str.49, i32 noundef %2) #17
  br label %44

24:                                               ; preds = %19, %.thread
  %.124.ph = phi ptr [ %11, %.thread ], [ %20, %19 ]
  %.1.ph.in = phi ptr [ %12, %.thread ], [ %21, %19 ]
  %.1.ph = load ptr, ptr %.1.ph.in, align 8
  %25 = load i64, ptr %.124.ph, align 8
  %26 = icmp ugt i64 %25, 6
  %27 = load i64, ptr getelementptr inbounds nuw (i8, ptr @slurm_conf, i64 320), align 8
  %28 = and i64 %27, 36028797018963968
  %.not30 = icmp eq i64 %28, 0
  br i1 %26, label %29, label %37

29:                                               ; preds = %24
  br i1 %.not30, label %34, label %30

30:                                               ; preds = %29
  %31 = call i32 @get_log_level() #17
  %32 = icmp sgt i32 %31, 3
  br i1 %32, label %33, label %34

33:                                               ; preds = %30
  call void (i32, ptr, ...) @log_var(i32 noundef 4, ptr noundef nonnull @.str.50, ptr noundef nonnull @plugin_type, ptr noundef nonnull @__func__.cgroup_p_constrain_apply, ptr noundef %.1.ph) #17
  br label %34

34:                                               ; preds = %30, %33, %29
  call void @close_ebpf_prog(ptr noundef nonnull %.124.ph, i1 noundef zeroext true) #17
  %35 = icmp ne i32 %spec.store.select2, 7
  %36 = call i32 @load_ebpf_prog(ptr noundef nonnull %.124.ph, ptr noundef %.1.ph, i1 noundef zeroext %35) #17
  br label %44

37:                                               ; preds = %24
  br i1 %.not30, label %44, label %38

38:                                               ; preds = %37
  %39 = call i32 @get_log_level() #17
  %40 = icmp sgt i32 %39, 3
  br i1 %40, label %41, label %44

41:                                               ; preds = %38
  call void (i32, ptr, ...) @log_var(i32 noundef 4, ptr noundef nonnull @.str.51, ptr noundef nonnull @plugin_type, ptr noundef nonnull @__func__.cgroup_p_constrain_apply, ptr noundef %.1.ph) #17
  br label %44

42:                                               ; preds = %6
  %43 = tail call i32 (ptr, ...) @error(ptr noundef nonnull @.str.48, i32 noundef %0) #17
  br label %44

44:                                               ; preds = %37, %41, %38, %3, %42, %34, %22, %16
  %.022 = phi i32 [ %36, %34 ], [ -1, %22 ], [ -1, %16 ], [ -1, %42 ], [ 0, %3 ], [ 0, %38 ], [ 0, %41 ], [ 0, %37 ]
  ret i32 %.022
}